#include <math.h>
#include <stdio.h>
#include <stdlib.h>
#include <string.h>

int main(){
	int k;
	int m,n;
	int a[101][101];
	int u,i,j,sum;
	scanf("%d",&k);
	for(u=0;u<k;u++){
		sum=0;
		scanf("%d%d",&m,&n);
		for(i=0;i<m;i++){
			for(j=0;j<n;j++){
				scanf("%d",&a[i][j]);
				if((i==0)||(j==0)||(i==m-1)||j==(n-1)){
					sum+=a[i][j];
				}
			}
		}
		if(u!=k-1){
			printf("%d\n",sum);
		}
		else if(u==k-1){
			printf("%d",sum);
		}
	}

	return 0;
}