; ModuleID = 'source-C-CXX/5/1041.c'
source_filename = "source-C-CXX/5/1041.c"
target datalayout = "e-m:e-p270:32:32-p271:32:32-p272:64:64-i64:64-f80:128-n8:16:32:64-S128"
target triple = "x86_64-pc-linux-gnu"

@.str = private unnamed_addr constant [3 x i8] c"%d\00", align 1
@.str.1 = private unnamed_addr constant [5 x i8] c"%d%d\00", align 1
@.str.2 = private unnamed_addr constant [4 x i8] c"%d\0A\00", align 1

; Function Attrs: nofree nounwind sspstrong uwtable
define dso_local i32 @main() local_unnamed_addr #0 {
  %1 = alloca i32, align 4
  %2 = alloca i32, align 4
  %3 = alloca i32, align 4
  %4 = alloca [101 x [101 x i32]], align 16
  %5 = bitcast i32* %1 to i8*
  call void @llvm.lifetime.start.p0i8(i64 4, i8* nonnull %5) #3
  %6 = bitcast i32* %2 to i8*
  call void @llvm.lifetime.start.p0i8(i64 4, i8* nonnull %6) #3
  %7 = bitcast i32* %3 to i8*
  call void @llvm.lifetime.start.p0i8(i64 4, i8* nonnull %7) #3
  %8 = bitcast [101 x [101 x i32]]* %4 to i8*
  call void @llvm.lifetime.start.p0i8(i64 40804, i8* nonnull %8) #3
  %9 = call i32 (i8*, ...) @__isoc99_scanf(i8* getelementptr inbounds ([3 x i8], [3 x i8]* @.str, i64 0, i64 0), i32* nonnull %1)
  %10 = load i32, i32* %1, align 4, !tbaa !5
  %11 = icmp sgt i32 %10, 0
  br i1 %11, label %12, label %86

12:                                               ; preds = %0, %76
  %13 = phi i32 [ %83, %76 ], [ 0, %0 ]
  %14 = call i32 (i8*, ...) @__isoc99_scanf(i8* getelementptr inbounds ([5 x i8], [5 x i8]* @.str.1, i64 0, i64 0), i32* nonnull %2, i32* nonnull %3)
  %15 = load i32, i32* %2, align 4, !tbaa !5
  %16 = icmp sgt i32 %15, 0
  %17 = load i32, i32* %3, align 4
  %18 = icmp sgt i32 %17, 0
  %19 = select i1 %16, i1 %18, i1 false
  br i1 %19, label %20, label %76

20:                                               ; preds = %12, %69
  %21 = phi i32 [ %70, %69 ], [ %17, %12 ]
  %22 = phi i64 [ %72, %69 ], [ 0, %12 ]
  %23 = phi i32 [ %71, %69 ], [ 0, %12 ]
  %24 = icmp sgt i32 %21, 0
  br i1 %24, label %25, label %69

25:                                               ; preds = %20
  %26 = icmp eq i64 %22, 0
  br i1 %26, label %34, label %27

27:                                               ; preds = %25
  %28 = getelementptr inbounds [101 x [101 x i32]], [101 x [101 x i32]]* %4, i64 0, i64 %22, i64 0
  %29 = call i32 (i8*, ...) @__isoc99_scanf(i8* getelementptr inbounds ([3 x i8], [3 x i8]* @.str, i64 0, i64 0), i32* nonnull %28)
  %30 = load i32, i32* %28, align 4, !tbaa !5
  %31 = add nsw i32 %30, %23
  %32 = load i32, i32* %3, align 4, !tbaa !5
  %33 = icmp sgt i32 %32, 1
  br i1 %33, label %45, label %69

34:                                               ; preds = %25, %34
  %35 = phi i64 [ %41, %34 ], [ 0, %25 ]
  %36 = phi i32 [ %40, %34 ], [ %23, %25 ]
  %37 = getelementptr inbounds [101 x [101 x i32]], [101 x [101 x i32]]* %4, i64 0, i64 0, i64 %35
  %38 = call i32 (i8*, ...) @__isoc99_scanf(i8* getelementptr inbounds ([3 x i8], [3 x i8]* @.str, i64 0, i64 0), i32* nonnull %37)
  %39 = load i32, i32* %37, align 4, !tbaa !5
  %40 = add nsw i32 %39, %36
  %41 = add nuw nsw i64 %35, 1
  %42 = load i32, i32* %3, align 4, !tbaa !5
  %43 = sext i32 %42 to i64
  %44 = icmp slt i64 %41, %43
  br i1 %44, label %34, label %69, !llvm.loop !9

45:                                               ; preds = %27, %63
  %46 = phi i64 [ %66, %63 ], [ 1, %27 ]
  %47 = phi i32 [ %65, %63 ], [ %31, %27 ]
  %48 = getelementptr inbounds [101 x [101 x i32]], [101 x [101 x i32]]* %4, i64 0, i64 %22, i64 %46
  %49 = call i32 (i8*, ...) @__isoc99_scanf(i8* getelementptr inbounds ([3 x i8], [3 x i8]* @.str, i64 0, i64 0), i32* nonnull %48)
  %50 = load i32, i32* %2, align 4, !tbaa !5
  %51 = add nsw i32 %50, -1
  %52 = zext i32 %51 to i64
  %53 = icmp eq i64 %22, %52
  br i1 %53, label %59, label %54

54:                                               ; preds = %45
  %55 = load i32, i32* %3, align 4, !tbaa !5
  %56 = add nsw i32 %55, -1
  %57 = zext i32 %56 to i64
  %58 = icmp eq i64 %46, %57
  br i1 %58, label %59, label %63

59:                                               ; preds = %54, %45
  %60 = load i32, i32* %48, align 4, !tbaa !5
  %61 = add nsw i32 %60, %47
  %62 = load i32, i32* %3, align 4, !tbaa !5
  br label %63

63:                                               ; preds = %54, %59
  %64 = phi i32 [ %62, %59 ], [ %55, %54 ]
  %65 = phi i32 [ %61, %59 ], [ %47, %54 ]
  %66 = add nuw nsw i64 %46, 1
  %67 = sext i32 %64 to i64
  %68 = icmp slt i64 %66, %67
  br i1 %68, label %45, label %69, !llvm.loop !11

69:                                               ; preds = %63, %34, %27, %20
  %70 = phi i32 [ %21, %20 ], [ %32, %27 ], [ %42, %34 ], [ %64, %63 ]
  %71 = phi i32 [ %23, %20 ], [ %31, %27 ], [ %40, %34 ], [ %65, %63 ]
  %72 = add nuw nsw i64 %22, 1
  %73 = load i32, i32* %2, align 4, !tbaa !5
  %74 = sext i32 %73 to i64
  %75 = icmp slt i64 %72, %74
  br i1 %75, label %20, label %76, !llvm.loop !13

76:                                               ; preds = %69, %12
  %77 = phi i32 [ 0, %12 ], [ %71, %69 ]
  %78 = load i32, i32* %1, align 4, !tbaa !5
  %79 = add nsw i32 %78, -1
  %80 = icmp eq i32 %13, %79
  %81 = select i1 %80, i8* getelementptr inbounds ([3 x i8], [3 x i8]* @.str, i64 0, i64 0), i8* getelementptr inbounds ([4 x i8], [4 x i8]* @.str.2, i64 0, i64 0)
  %82 = call i32 (i8*, ...) @printf(i8* nonnull dereferenceable(1) %81, i32 %77)
  %83 = add nuw nsw i32 %13, 1
  %84 = load i32, i32* %1, align 4, !tbaa !5
  %85 = icmp slt i32 %83, %84
  br i1 %85, label %12, label %86, !llvm.loop !15

86:                                               ; preds = %76, %0
  call void @llvm.lifetime.end.p0i8(i64 40804, i8* nonnull %8) #3
  call void @llvm.lifetime.end.p0i8(i64 4, i8* nonnull %7) #3
  call void @llvm.lifetime.end.p0i8(i64 4, i8* nonnull %6) #3
  call void @llvm.lifetime.end.p0i8(i64 4, i8* nonnull %5) #3
  ret i32 0
}

; Function Attrs: argmemonly mustprogress nofree nosync nounwind willreturn
declare void @llvm.lifetime.start.p0i8(i64 immarg, i8* nocapture) #1

; Function Attrs: nofree nounwind
declare noundef i32 @__isoc99_scanf(i8* nocapture noundef readonly, ...) local_unnamed_addr #2

; Function Attrs: nofree nounwind
declare noundef i32 @printf(i8* nocapture noundef readonly, ...) local_unnamed_addr #2

; Function Attrs: argmemonly mustprogress nofree nosync nounwind willreturn
declare void @llvm.lifetime.end.p0i8(i64 immarg, i8* nocapture) #1


!llvm.module.flags = !{!0, !1, !2, !3}
!llvm.ident = !{!4}

!0 = !{i32 1, !"wchar_size", i32 4}
!1 = !{i32 7, !"PIC Level", i32 2}
!2 = !{i32 7, !"PIE Level", i32 2}
!3 = !{i32 7, !"uwtable", i32 1}
!4 = !{!"clang version 13.0.0"}
!5 = !{!6, !6, i64 0}
!6 = !{!"int", !7, i64 0}
!7 = !{!"omnipotent char", !8, i64 0}
!8 = !{!"Simple C/C++ TBAA"}
!9 = distinct !{!9, !10}
!10 = !{!"llvm.loop.mustprogress"}
!11 = distinct !{!11, !10, !12}
!12 = !{!"llvm.loop.peeled.count", i32 1}
!13 = distinct !{!13, !10, !14}
!14 = !{!"llvm.loop.unswitch.partial.disable"}
!15 = distinct !{!15, !10}
